target datalayout = "e-m:e-p270:32:32-p271:32:32-p272:64:64-i64:64-i128:128-f80:128-n8:16:32:64-S128"
target triple = "x86_64-pc-linux-gnu"

@.str.15 = private unnamed_addr constant [12 x i8] c"ECPGd_count\00", align 1
@.str.16 = private unnamed_addr constant [11 x i8] c"ECPGd_data\00", align 1
@.str.17 = private unnamed_addr constant [14 x i8] c"ECPGd_di_code\00", align 1
@.str.18 = private unnamed_addr constant [19 x i8] c"ECPGd_di_precision\00", align 1
@.str.19 = private unnamed_addr constant [16 x i8] c"ECPGd_indicator\00", align 1
@.str.20 = private unnamed_addr constant [17 x i8] c"ECPGd_key_member\00", align 1
@.str.21 = private unnamed_addr constant [13 x i8] c"ECPGd_length\00", align 1
@.str.22 = private unnamed_addr constant [11 x i8] c"ECPGd_name\00", align 1
@.str.23 = private unnamed_addr constant [15 x i8] c"ECPGd_nullable\00", align 1
@.str.24 = private unnamed_addr constant [12 x i8] c"ECPGd_octet\00", align 1
@.str.25 = private unnamed_addr constant [16 x i8] c"ECPGd_precision\00", align 1
@.str.26 = private unnamed_addr constant [17 x i8] c"ECPGd_ret_length\00", align 1
@.str.27 = private unnamed_addr constant [16 x i8] c"ECPGd_ret_octet\00", align 1
@.str.28 = private unnamed_addr constant [12 x i8] c"ECPGd_scale\00", align 1
@.str.29 = private unnamed_addr constant [11 x i8] c"ECPGd_type\00", align 1
@.str.30 = private unnamed_addr constant [18 x i8] c"ECPGd_cardinality\00", align 1
@.str.31 = private unnamed_addr constant [37 x i8] c"unrecognized descriptor item code %d\00", align 1

; Function Attrs: nounwind uwtable
define dso_local ptr @get_dtype(i32 noundef %0) #0 {
  %2 = alloca ptr, align 8
  %3 = alloca i32, align 4
  store i32 %0, ptr %3, align 4
  %4 = load i32, ptr %3, align 4
  switch i32 %4, label %21 [
    i32 1, label %5
    i32 2, label %6
    i32 3, label %7
    i32 4, label %8
    i32 5, label %9
    i32 6, label %10
    i32 7, label %11
    i32 8, label %12
    i32 9, label %13
    i32 10, label %14
    i32 11, label %15
    i32 12, label %16
    i32 13, label %17
    i32 14, label %18
    i32 15, label %19
    i32 17, label %20
  ]

5:                                                ; preds = %1
  store ptr @.str.15, ptr %2, align 8
  br label %24

6:                                                ; preds = %1
  store ptr @.str.16, ptr %2, align 8
  br label %24

7:                                                ; preds = %1
  store ptr @.str.17, ptr %2, align 8
  br label %24

8:                                                ; preds = %1
  store ptr @.str.18, ptr %2, align 8
  br label %24

9:                                                ; preds = %1
  store ptr @.str.19, ptr %2, align 8
  br label %24

10:                                               ; preds = %1
  store ptr @.str.20, ptr %2, align 8
  br label %24

11:                                               ; preds = %1
  store ptr @.str.21, ptr %2, align 8
  br label %24

12:                                               ; preds = %1
  store ptr @.str.22, ptr %2, align 8
  br label %24

13:                                               ; preds = %1
  store ptr @.str.23, ptr %2, align 8
  br label %24

14:                                               ; preds = %1
  store ptr @.str.24, ptr %2, align 8
  br label %24

15:                                               ; preds = %1
  store ptr @.str.25, ptr %2, align 8
  br label %24

16:                                               ; preds = %1
  store ptr @.str.26, ptr %2, align 8
  br label %24

17:                                               ; preds = %1
  store ptr @.str.27, ptr %2, align 8
  br label %24

18:                                               ; preds = %1
  store ptr @.str.28, ptr %2, align 8
  br label %24

19:                                               ; preds = %1
  store ptr @.str.29, ptr %2, align 8
  br label %24

20:                                               ; preds = %1
  store ptr @.str.30, ptr %2, align 8
  br label %24

21:                                               ; preds = %1
  %22 = load i32, ptr %3, align 4
  call void (i32, i32, ptr, ...) @mmerror(i32 noundef 3, i32 noundef 1, ptr noundef @.str.31, i32 noundef %22)
  br label %23

23:                                               ; preds = %21
  store ptr null, ptr %2, align 8
  br label %24

24:                                               ; preds = %23, %20, %19, %18, %17, %16, %15, %14, %13, %12, %11, %10, %9, %8, %7, %6, %5
  %25 = load ptr, ptr %2, align 8
  ret ptr %25
}