; Function Attrs: nounwind uwtable
define dso_local noundef ptr @get_dtype(i32 noundef %0) local_unnamed_addr #0 {
  %switch.tableidx = add i32 %0, -1
  %2 = icmp ult i32 %switch.tableidx, 17
  br i1 %2, label %switch.hole_check, label %3

3:                                                ; preds = %switch.hole_check, %1
  tail call void (i32, i32, ptr, ...) @mmerror(i32 noundef 3, i32 noundef 1, ptr noundef nonnull @.str.31, i32 noundef %0) #7
  br label %5

switch.hole_check:                                ; preds = %1
  %switch.shifted = lshr i32 98303, %switch.tableidx
  %switch.lobit = trunc i32 %switch.shifted to i1
  br i1 %switch.lobit, label %switch.lookup, label %3

switch.lookup:                                    ; preds = %switch.hole_check
  %4 = zext nneg i32 %switch.tableidx to i64
  %switch.gep = getelementptr inbounds nuw [17 x ptr], ptr @switch.table.get_dtype, i64 0, i64 %4
  %switch.load = load ptr, ptr %switch.gep, align 8
  br label %5

5:                                                ; preds = %switch.lookup, %3
  %.0 = phi ptr [ null, %3 ], [ %switch.load, %switch.lookup ]
  ret ptr %.0
}